target datalayout = "e-m:e-p270:32:32-p271:32:32-p272:64:64-i64:64-i128:128-f80:128-n8:16:32:64-S128"
target triple = "x86_64-pc-linux-gnu"

%struct.lean_object = type { i32, i32 }
%struct.lean_ctor_object = type { %struct.lean_object, [0 x ptr] }

@.str.6 = private unnamed_addr constant [35 x i8] c"timezone retrieval is Windows-only\00", align 1

; Function Attrs: inlinehint mustprogress nounwind uwtable
define internal noundef ptr @_ZL12lean_to_ctorP11lean_object(ptr noundef %0) #7 {
  %2 = alloca ptr, align 8
  store ptr %0, ptr %2, align 8, !tbaa !3
  %3 = load ptr, ptr %2, align 8, !tbaa !3
  ret ptr %3
}

; Function Attrs: inlinehint mustprogress uwtable
define internal noundef ptr @_ZL23lean_alloc_small_objectj(i32 noundef %0) #2 {
  %2 = alloca i32, align 4
  %3 = alloca ptr, align 8
  %4 = alloca ptr, align 8
  store i32 %0, ptr %2, align 4, !tbaa !32
  call void @lean_inc_heartbeat()
  %5 = load i32, ptr %2, align 4, !tbaa !32
  %6 = zext i32 %5 to i64
  %7 = call noundef i64 @_ZL10lean_alignmm(i64 noundef %6, i64 noundef 8)
  %8 = trunc i64 %7 to i32
  store i32 %8, ptr %2, align 4, !tbaa !32
  call void @llvm.lifetime.start.p0(i64 8, ptr %3) #20
  %9 = load i32, ptr %2, align 4, !tbaa !32
  %10 = zext i32 %9 to i64
  %11 = call noalias ptr @mi_malloc_small(i64 noundef %10) #20
  store ptr %11, ptr %3, align 8, !tbaa !3
  %12 = load ptr, ptr %3, align 8, !tbaa !3
  %13 = icmp eq ptr %12, null
  br i1 %13, label %14, label %15

14:                                               ; preds = %1
  call void @lean_internal_panic_out_of_memory() #26
  unreachable

15:                                               ; preds = %1
  call void @llvm.lifetime.start.p0(i64 8, ptr %4) #20
  %16 = load ptr, ptr %3, align 8, !tbaa !3
  store ptr %16, ptr %4, align 8, !tbaa !3
  %17 = load i32, ptr %2, align 4, !tbaa !32
  %18 = load ptr, ptr %4, align 8, !tbaa !3
  %19 = getelementptr inbounds nuw %struct.lean_object, ptr %18, i32 0, i32 1
  %20 = load i32, ptr %19, align 4
  %21 = and i32 %17, 65535
  %22 = and i32 %20, -65536
  %23 = or i32 %22, %21
  store i32 %23, ptr %19, align 4
  %24 = load ptr, ptr %4, align 8, !tbaa !3
  call void @llvm.lifetime.end.p0(i64 8, ptr %4) #20
  call void @llvm.lifetime.end.p0(i64 8, ptr %3) #20
  ret ptr %24
}

; Function Attrs: inlinehint mustprogress nounwind uwtable
define internal noundef i64 @_ZL10lean_alignmm(i64 noundef %0, i64 noundef %1) #7 {
  %3 = alloca i64, align 8
  %4 = alloca i64, align 8
  store i64 %0, ptr %3, align 8, !tbaa !19
  store i64 %1, ptr %4, align 8, !tbaa !19
  %5 = load i64, ptr %3, align 8, !tbaa !19
  %6 = load i64, ptr %4, align 8, !tbaa !19
  %7 = udiv i64 %5, %6
  %8 = load i64, ptr %4, align 8, !tbaa !19
  %9 = mul i64 %7, %8
  %10 = load i64, ptr %4, align 8, !tbaa !19
  %11 = load i64, ptr %3, align 8, !tbaa !19
  %12 = load i64, ptr %4, align 8, !tbaa !19
  %13 = urem i64 %11, %12
  %14 = icmp ne i64 %13, 0
  %15 = zext i1 %14 to i64
  %16 = mul i64 %10, %15
  %17 = add i64 %9, %16
  ret i64 %17
}

; Function Attrs: inlinehint mustprogress nounwind uwtable
define internal noundef zeroext i1 @_ZL10lean_is_stP11lean_object(ptr noundef %0) #7 {
  %2 = alloca ptr, align 8
  store ptr %0, ptr %2, align 8, !tbaa !3
  %3 = load ptr, ptr %2, align 8, !tbaa !3
  %4 = getelementptr inbounds nuw %struct.lean_object, ptr %3, i32 0, i32 0
  %5 = load i32, ptr %4, align 4, !tbaa !108
  %6 = icmp sgt i32 %5, 0
  ret i1 %6
}

; Function Attrs: inlinehint mustprogress uwtable
define internal noundef ptr @_ZL18lean_ctor_obj_cptrP11lean_object(ptr noundef %0) #2 {
  %2 = alloca ptr, align 8
  store ptr %0, ptr %2, align 8, !tbaa !3
  %3 = load ptr, ptr %2, align 8, !tbaa !3
  %4 = call noundef ptr @_ZL12lean_to_ctorP11lean_object(ptr noundef %3)
  %5 = getelementptr inbounds nuw %struct.lean_ctor_object, ptr %4, i32 0, i32 1
  %6 = getelementptr inbounds [0 x ptr], ptr %5, i64 0, i64 0
  ret ptr %6
}

; Function Attrs: inlinehint mustprogress nounwind uwtable
define internal void @_ZL18lean_set_st_headerP11lean_objectjj(ptr noundef %0, i32 noundef %1, i32 noundef %2) #7 {
  %4 = alloca ptr, align 8
  %5 = alloca i32, align 4
  %6 = alloca i32, align 4
  store ptr %0, ptr %4, align 8, !tbaa !3
  store i32 %1, ptr %5, align 4, !tbaa !32
  store i32 %2, ptr %6, align 4, !tbaa !32
  %7 = load ptr, ptr %4, align 8, !tbaa !3
  %8 = getelementptr inbounds nuw %struct.lean_object, ptr %7, i32 0, i32 0
  store i32 1, ptr %8, align 4, !tbaa !108
  %9 = load i32, ptr %5, align 4, !tbaa !32
  %10 = load ptr, ptr %4, align 8, !tbaa !3
  %11 = getelementptr inbounds nuw %struct.lean_object, ptr %10, i32 0, i32 1
  %12 = load i32, ptr %11, align 4
  %13 = and i32 %9, 255
  %14 = shl i32 %13, 24
  %15 = and i32 %12, 16777215
  %16 = or i32 %15, %14
  store i32 %16, ptr %11, align 4
  %17 = load i32, ptr %6, align 4, !tbaa !32
  %18 = load ptr, ptr %4, align 8, !tbaa !3
  %19 = getelementptr inbounds nuw %struct.lean_object, ptr %18, i32 0, i32 1
  %20 = load i32, ptr %19, align 4
  %21 = and i32 %17, 255
  %22 = shl i32 %21, 16
  %23 = and i32 %20, -16711681
  %24 = or i32 %23, %22
  store i32 %24, ptr %19, align 4
  ret void
}

; Function Attrs: inlinehint mustprogress uwtable
define internal noundef ptr @_ZL22lean_alloc_ctor_memoryj(i32 noundef %0) #2 {
  %2 = alloca i32, align 4
  %3 = alloca i32, align 4
  %4 = alloca ptr, align 8
  %5 = alloca ptr, align 8
  store i32 %0, ptr %2, align 4, !tbaa !32
  call void @llvm.lifetime.start.p0(i64 4, ptr %3) #20
  %6 = load i32, ptr %2, align 4, !tbaa !32
  %7 = zext i32 %6 to i64
  %8 = call noundef i64 @_ZL10lean_alignmm(i64 noundef %7, i64 noundef 8)
  %9 = trunc i64 %8 to i32
  store i32 %9, ptr %3, align 4, !tbaa !32
  call void @llvm.lifetime.start.p0(i64 8, ptr %4) #20
  %10 = load i32, ptr %2, align 4, !tbaa !32
  %11 = call noundef ptr @_ZL23lean_alloc_small_objectj(i32 noundef %10)
  store ptr %11, ptr %4, align 8, !tbaa !3
  %12 = load i32, ptr %3, align 4, !tbaa !32
  %13 = load i32, ptr %2, align 4, !tbaa !32
  %14 = icmp ugt i32 %12, %13
  br i1 %14, label %15, label %22

15:                                               ; preds = %1
  call void @llvm.lifetime.start.p0(i64 8, ptr %5) #20
  %16 = load ptr, ptr %4, align 8, !tbaa !3
  %17 = load i32, ptr %3, align 4, !tbaa !32
  %18 = zext i32 %17 to i64
  %19 = getelementptr inbounds nuw i8, ptr %16, i64 %18
  store ptr %19, ptr %5, align 8, !tbaa !128
  %20 = load ptr, ptr %5, align 8, !tbaa !128
  %21 = getelementptr inbounds i64, ptr %20, i64 -1
  store i64 0, ptr %21, align 8, !tbaa !19
  call void @llvm.lifetime.end.p0(i64 8, ptr %5) #20
  br label %22

22:                                               ; preds = %15, %1
  %23 = load ptr, ptr %4, align 8, !tbaa !3
  call void @llvm.lifetime.end.p0(i64 8, ptr %4) #20
  call void @llvm.lifetime.end.p0(i64 4, ptr %3) #20
  ret ptr %23
}

; Function Attrs: inlinehint mustprogress uwtable
define internal void @_ZL12lean_inc_refP11lean_object(ptr noundef %0) #2 {
  %2 = alloca ptr, align 8
  store ptr %0, ptr %2, align 8, !tbaa !3
  %3 = load ptr, ptr %2, align 8, !tbaa !3
  %4 = call noundef zeroext i1 @_ZL10lean_is_stP11lean_object(ptr noundef %3)
  %5 = zext i1 %4 to i64
  %6 = call i64 @llvm.expect.i64(i64 %5, i64 1)
  %7 = icmp ne i64 %6, 0
  br i1 %7, label %8, label %13

8:                                                ; preds = %1
  %9 = load ptr, ptr %2, align 8, !tbaa !3
  %10 = getelementptr inbounds nuw %struct.lean_object, ptr %9, i32 0, i32 0
  %11 = load i32, ptr %10, align 4, !tbaa !108
  %12 = add nsw i32 %11, 1
  store i32 %12, ptr %10, align 4, !tbaa !108
  br label %21

13:                                               ; preds = %1
  %14 = load ptr, ptr %2, align 8, !tbaa !3
  %15 = getelementptr inbounds nuw %struct.lean_object, ptr %14, i32 0, i32 0
  %16 = load i32, ptr %15, align 4, !tbaa !108
  %17 = icmp ne i32 %16, 0
  br i1 %17, label %18, label %20

18:                                               ; preds = %13
  %19 = load ptr, ptr %2, align 8, !tbaa !3
  call void @lean_inc_ref_cold(ptr noundef %19)
  br label %20

20:                                               ; preds = %18, %13
  br label %21

21:                                               ; preds = %20, %8
  ret void
}

; Function Attrs: inlinehint mustprogress nounwind uwtable
define internal noundef ptr @_ZL8lean_boxm(i64 noundef %0) #7 {
  %2 = alloca i64, align 8
  store i64 %0, ptr %2, align 8, !tbaa !19
  %3 = load i64, ptr %2, align 8, !tbaa !19
  %4 = shl i64 %3, 1
  %5 = or i64 %4, 1
  %6 = inttoptr i64 %5 to ptr
  ret ptr %6
}

; Function Attrs: inlinehint mustprogress uwtable
define internal void @_ZL13lean_ctor_setP11lean_objectjS0_(ptr noundef %0, i32 noundef %1, ptr noundef %2) #2 {
  %4 = alloca ptr, align 8
  %5 = alloca i32, align 4
  %6 = alloca ptr, align 8
  store ptr %0, ptr %4, align 8, !tbaa !3
  store i32 %1, ptr %5, align 4, !tbaa !32
  store ptr %2, ptr %6, align 8, !tbaa !3
  %7 = load ptr, ptr %6, align 8, !tbaa !3
  %8 = load ptr, ptr %4, align 8, !tbaa !3
  %9 = call noundef ptr @_ZL18lean_ctor_obj_cptrP11lean_object(ptr noundef %8)
  %10 = load i32, ptr %5, align 4, !tbaa !32
  %11 = zext i32 %10 to i64
  %12 = getelementptr inbounds nuw ptr, ptr %9, i64 %11
  store ptr %7, ptr %12, align 8, !tbaa !3
  ret void
}

; Function Attrs: inlinehint mustprogress uwtable
define internal noundef ptr @_ZL15lean_alloc_ctorjjj(i32 noundef %0, i32 noundef %1, i32 noundef %2) #2 {
  %4 = alloca i32, align 4
  %5 = alloca i32, align 4
  %6 = alloca i32, align 4
  %7 = alloca ptr, align 8
  store i32 %0, ptr %4, align 4, !tbaa !32
  store i32 %1, ptr %5, align 4, !tbaa !32
  store i32 %2, ptr %6, align 4, !tbaa !32
  call void @llvm.lifetime.start.p0(i64 8, ptr %7) #20
  %8 = load i32, ptr %5, align 4, !tbaa !32
  %9 = zext i32 %8 to i64
  %10 = mul i64 8, %9
  %11 = add i64 8, %10
  %12 = load i32, ptr %6, align 4, !tbaa !32
  %13 = zext i32 %12 to i64
  %14 = add i64 %11, %13
  %15 = trunc i64 %14 to i32
  %16 = call noundef ptr @_ZL22lean_alloc_ctor_memoryj(i32 noundef %15)
  store ptr %16, ptr %7, align 8, !tbaa !3
  %17 = load ptr, ptr %7, align 8, !tbaa !3
  %18 = load i32, ptr %4, align 4, !tbaa !32
  %19 = load i32, ptr %5, align 4, !tbaa !32
  call void @_ZL18lean_set_st_headerP11lean_objectjj(ptr noundef %17, i32 noundef %18, i32 noundef %19)
  %20 = load ptr, ptr %7, align 8, !tbaa !3
  call void @llvm.lifetime.end.p0(i64 8, ptr %7) #20
  ret ptr %20
}

; Function Attrs: inlinehint mustprogress uwtable
define linkonce_odr hidden void @_ZN4lean7inc_refEP11lean_object(ptr noundef %0) #2 comdat {
  %2 = alloca ptr, align 8
  store ptr %0, ptr %2, align 8, !tbaa !3
  %3 = load ptr, ptr %2, align 8, !tbaa !3
  call void @_ZL12lean_inc_refP11lean_object(ptr noundef %3)
  ret void
}

; Function Attrs: inlinehint mustprogress uwtable
define internal noundef ptr @_ZL23lean_io_result_mk_errorP11lean_object(ptr noundef %0) #2 {
  %2 = alloca ptr, align 8
  %3 = alloca ptr, align 8
  store ptr %0, ptr %2, align 8, !tbaa !3
  call void @llvm.lifetime.start.p0(i64 8, ptr %3) #20
  %4 = call noundef ptr @_ZL15lean_alloc_ctorjjj(i32 noundef 1, i32 noundef 2, i32 noundef 0)
  store ptr %4, ptr %3, align 8, !tbaa !3
  %5 = load ptr, ptr %3, align 8, !tbaa !3
  %6 = load ptr, ptr %2, align 8, !tbaa !3
  call void @_ZL13lean_ctor_setP11lean_objectjS0_(ptr noundef %5, i32 noundef 0, ptr noundef %6)
  %7 = load ptr, ptr %3, align 8, !tbaa !3
  %8 = call noundef ptr @_ZL8lean_boxm(i64 noundef 0)
  call void @_ZL13lean_ctor_setP11lean_objectjS0_(ptr noundef %7, i32 noundef 1, ptr noundef %8)
  %9 = load ptr, ptr %3, align 8, !tbaa !3
  call void @llvm.lifetime.end.p0(i64 8, ptr %3) #20
  ret ptr %9
}

; Function Attrs: mustprogress uwtable
define ptr @lean_decode_io_error(i32 noundef %0, ptr noundef %1) #0 {
  %3 = alloca ptr, align 8
  %4 = alloca i32, align 4
  %5 = alloca ptr, align 8
  %6 = alloca ptr, align 8
  %7 = alloca i32, align 4
  store i32 %0, ptr %4, align 4, !tbaa !32
  store ptr %1, ptr %5, align 8, !tbaa !3
  call void @llvm.lifetime.start.p0(i64 8, ptr %6) #20
  %8 = load i32, ptr %4, align 4, !tbaa !32
  %9 = call ptr @strerror(i32 noundef %8) #20
  %10 = call noundef ptr @_ZN4lean9mk_stringEPKc(ptr noundef %9)
  store ptr %10, ptr %6, align 8, !tbaa !3
  %11 = load i32, ptr %4, align 4, !tbaa !32
  switch i32 %11, label %135 [
    i32 4, label %12
    i32 40, label %18
    i32 36, label %18
    i32 89, label %18
    i32 9, label %18
    i32 33, label %18
    i32 22, label %18
    i32 84, label %18
    i32 8, label %18
    i32 60, label %18
    i32 107, label %18
    i32 88, label %18
    i32 2, label %31
    i32 13, label %37
    i32 30, label %37
    i32 103, label %37
    i32 27, label %37
    i32 1, label %37
    i32 24, label %50
    i32 23, label %50
    i32 28, label %50
    i32 7, label %50
    i32 11, label %50
    i32 31, label %50
    i32 90, label %50
    i32 105, label %50
    i32 37, label %50
    i32 12, label %50
    i32 63, label %50
    i32 21, label %63
    i32 74, label %63
    i32 20, label %63
    i32 6, label %76
    i32 113, label %76
    i32 101, label %76
    i32 10, label %76
    i32 111, label %76
    i32 61, label %76
    i32 42, label %76
    i32 3, label %76
    i32 17, label %89
    i32 115, label %89
    i32 106, label %89
    i32 5, label %102
    i32 39, label %106
    i32 25, label %110
    i32 104, label %114
    i32 43, label %114
    i32 100, label %114
    i32 102, label %114
    i32 67, label %114
    i32 32, label %114
    i32 71, label %118
    i32 93, label %118
    i32 91, label %118
    i32 62, label %122
    i32 110, label %122
    i32 98, label %126
    i32 16, label %126
    i32 35, label %126
    i32 26, label %126
    i32 99, label %130
    i32 97, label %130
    i32 19, label %130
    i32 92, label %130
    i32 38, label %130
    i32 95, label %130
    i32 34, label %130
    i32 29, label %130
    i32 18, label %130
    i32 14, label %134
  ]

12:                                               ; preds = %2
  %13 = load ptr, ptr %5, align 8, !tbaa !3
  call void @_ZN4lean7inc_refEP11lean_object(ptr noundef %13)
  %14 = load ptr, ptr %5, align 8, !tbaa !3
  %15 = load i32, ptr %4, align 4, !tbaa !32
  %16 = load ptr, ptr %6, align 8, !tbaa !3
  %17 = call ptr @lean_mk_io_error_interrupted(ptr noundef %14, i32 noundef %15, ptr noundef %16)
  store ptr %17, ptr %3, align 8
  store i32 1, ptr %7, align 4
  br label %139

18:                                               ; preds = %2, %2, %2, %2, %2, %2, %2, %2, %2, %2, %2
  %19 = load ptr, ptr %5, align 8, !tbaa !3
  %20 = icmp eq ptr %19, null
  br i1 %20, label %21, label %25

21:                                               ; preds = %18
  %22 = load i32, ptr %4, align 4, !tbaa !32
  %23 = load ptr, ptr %6, align 8, !tbaa !3
  %24 = call ptr @lean_mk_io_error_invalid_argument(i32 noundef %22, ptr noundef %23)
  store ptr %24, ptr %3, align 8
  store i32 1, ptr %7, align 4
  br label %139

25:                                               ; preds = %18
  %26 = load ptr, ptr %5, align 8, !tbaa !3
  call void @_ZN4lean7inc_refEP11lean_object(ptr noundef %26)
  %27 = load ptr, ptr %5, align 8, !tbaa !3
  %28 = load i32, ptr %4, align 4, !tbaa !32
  %29 = load ptr, ptr %6, align 8, !tbaa !3
  %30 = call ptr @lean_mk_io_error_invalid_argument_file(ptr noundef %27, i32 noundef %28, ptr noundef %29)
  store ptr %30, ptr %3, align 8
  store i32 1, ptr %7, align 4
  br label %139

31:                                               ; preds = %2
  %32 = load ptr, ptr %5, align 8, !tbaa !3
  call void @_ZN4lean7inc_refEP11lean_object(ptr noundef %32)
  %33 = load ptr, ptr %5, align 8, !tbaa !3
  %34 = load i32, ptr %4, align 4, !tbaa !32
  %35 = load ptr, ptr %6, align 8, !tbaa !3
  %36 = call ptr @lean_mk_io_error_no_file_or_directory(ptr noundef %33, i32 noundef %34, ptr noundef %35)
  store ptr %36, ptr %3, align 8
  store i32 1, ptr %7, align 4
  br label %139

37:                                               ; preds = %2, %2, %2, %2, %2
  %38 = load ptr, ptr %5, align 8, !tbaa !3
  %39 = icmp eq ptr %38, null
  br i1 %39, label %40, label %44

40:                                               ; preds = %37
  %41 = load i32, ptr %4, align 4, !tbaa !32
  %42 = load ptr, ptr %6, align 8, !tbaa !3
  %43 = call ptr @lean_mk_io_error_permission_denied(i32 noundef %41, ptr noundef %42)
  store ptr %43, ptr %3, align 8
  store i32 1, ptr %7, align 4
  br label %139

44:                                               ; preds = %37
  %45 = load ptr, ptr %5, align 8, !tbaa !3
  call void @_ZN4lean7inc_refEP11lean_object(ptr noundef %45)
  %46 = load ptr, ptr %5, align 8, !tbaa !3
  %47 = load i32, ptr %4, align 4, !tbaa !32
  %48 = load ptr, ptr %6, align 8, !tbaa !3
  %49 = call ptr @lean_mk_io_error_permission_denied_file(ptr noundef %46, i32 noundef %47, ptr noundef %48)
  store ptr %49, ptr %3, align 8
  store i32 1, ptr %7, align 4
  br label %139

50:                                               ; preds = %2, %2, %2, %2, %2, %2, %2, %2, %2, %2, %2
  %51 = load ptr, ptr %5, align 8, !tbaa !3
  %52 = icmp eq ptr %51, null
  br i1 %52, label %53, label %57

53:                                               ; preds = %50
  %54 = load i32, ptr %4, align 4, !tbaa !32
  %55 = load ptr, ptr %6, align 8, !tbaa !3
  %56 = call ptr @lean_mk_io_error_resource_exhausted(i32 noundef %54, ptr noundef %55)
  store ptr %56, ptr %3, align 8
  store i32 1, ptr %7, align 4
  br label %139

57:                                               ; preds = %50
  %58 = load ptr, ptr %5, align 8, !tbaa !3
  call void @_ZN4lean7inc_refEP11lean_object(ptr noundef %58)
  %59 = load ptr, ptr %5, align 8, !tbaa !3
  %60 = load i32, ptr %4, align 4, !tbaa !32
  %61 = load ptr, ptr %6, align 8, !tbaa !3
  %62 = call ptr @lean_mk_io_error_resource_exhausted_file(ptr noundef %59, i32 noundef %60, ptr noundef %61)
  store ptr %62, ptr %3, align 8
  store i32 1, ptr %7, align 4
  br label %139

63:                                               ; preds = %2, %2, %2
  %64 = load ptr, ptr %5, align 8, !tbaa !3
  %65 = icmp eq ptr %64, null
  br i1 %65, label %66, label %70

66:                                               ; preds = %63
  %67 = load i32, ptr %4, align 4, !tbaa !32
  %68 = load ptr, ptr %6, align 8, !tbaa !3
  %69 = call ptr @lean_mk_io_error_inappropriate_type(i32 noundef %67, ptr noundef %68)
  store ptr %69, ptr %3, align 8
  store i32 1, ptr %7, align 4
  br label %139

70:                                               ; preds = %63
  %71 = load ptr, ptr %5, align 8, !tbaa !3
  call void @_ZN4lean7inc_refEP11lean_object(ptr noundef %71)
  %72 = load ptr, ptr %5, align 8, !tbaa !3
  %73 = load i32, ptr %4, align 4, !tbaa !32
  %74 = load ptr, ptr %6, align 8, !tbaa !3
  %75 = call ptr @lean_mk_io_error_inappropriate_type_file(ptr noundef %72, i32 noundef %73, ptr noundef %74)
  store ptr %75, ptr %3, align 8
  store i32 1, ptr %7, align 4
  br label %139

76:                                               ; preds = %2, %2, %2, %2, %2, %2, %2, %2
  %77 = load ptr, ptr %5, align 8, !tbaa !3
  %78 = icmp eq ptr %77, null
  br i1 %78, label %79, label %83

79:                                               ; preds = %76
  %80 = load i32, ptr %4, align 4, !tbaa !32
  %81 = load ptr, ptr %6, align 8, !tbaa !3
  %82 = call ptr @lean_mk_io_error_no_such_thing(i32 noundef %80, ptr noundef %81)
  store ptr %82, ptr %3, align 8
  store i32 1, ptr %7, align 4
  br label %139

83:                                               ; preds = %76
  %84 = load ptr, ptr %5, align 8, !tbaa !3
  call void @_ZN4lean7inc_refEP11lean_object(ptr noundef %84)
  %85 = load ptr, ptr %5, align 8, !tbaa !3
  %86 = load i32, ptr %4, align 4, !tbaa !32
  %87 = load ptr, ptr %6, align 8, !tbaa !3
  %88 = call ptr @lean_mk_io_error_no_such_thing_file(ptr noundef %85, i32 noundef %86, ptr noundef %87)
  store ptr %88, ptr %3, align 8
  store i32 1, ptr %7, align 4
  br label %139

89:                                               ; preds = %2, %2, %2
  %90 = load ptr, ptr %5, align 8, !tbaa !3
  %91 = icmp eq ptr %90, null
  br i1 %91, label %92, label %96

92:                                               ; preds = %89
  %93 = load i32, ptr %4, align 4, !tbaa !32
  %94 = load ptr, ptr %6, align 8, !tbaa !3
  %95 = call ptr @lean_mk_io_error_already_exists(i32 noundef %93, ptr noundef %94)
  store ptr %95, ptr %3, align 8
  store i32 1, ptr %7, align 4
  br label %139

96:                                               ; preds = %89
  %97 = load ptr, ptr %5, align 8, !tbaa !3
  call void @_ZN4lean7inc_refEP11lean_object(ptr noundef %97)
  %98 = load ptr, ptr %5, align 8, !tbaa !3
  %99 = load i32, ptr %4, align 4, !tbaa !32
  %100 = load ptr, ptr %6, align 8, !tbaa !3
  %101 = call ptr @lean_mk_io_error_already_exists_file(ptr noundef %98, i32 noundef %99, ptr noundef %100)
  store ptr %101, ptr %3, align 8
  store i32 1, ptr %7, align 4
  br label %139

102:                                              ; preds = %2
  %103 = load i32, ptr %4, align 4, !tbaa !32
  %104 = load ptr, ptr %6, align 8, !tbaa !3
  %105 = call ptr @lean_mk_io_error_hardware_fault(i32 noundef %103, ptr noundef %104)
  store ptr %105, ptr %3, align 8
  store i32 1, ptr %7, align 4
  br label %139

106:                                              ; preds = %2
  %107 = load i32, ptr %4, align 4, !tbaa !32
  %108 = load ptr, ptr %6, align 8, !tbaa !3
  %109 = call ptr @lean_mk_io_error_unsatisfied_constraints(i32 noundef %107, ptr noundef %108)
  store ptr %109, ptr %3, align 8
  store i32 1, ptr %7, align 4
  br label %139

110:                                              ; preds = %2
  %111 = load i32, ptr %4, align 4, !tbaa !32
  %112 = load ptr, ptr %6, align 8, !tbaa !3
  %113 = call ptr @lean_mk_io_error_illegal_operation(i32 noundef %111, ptr noundef %112)
  store ptr %113, ptr %3, align 8
  store i32 1, ptr %7, align 4
  br label %139

114:                                              ; preds = %2, %2, %2, %2, %2, %2
  %115 = load i32, ptr %4, align 4, !tbaa !32
  %116 = load ptr, ptr %6, align 8, !tbaa !3
  %117 = call ptr @lean_mk_io_error_resource_vanished(i32 noundef %115, ptr noundef %116)
  store ptr %117, ptr %3, align 8
  store i32 1, ptr %7, align 4
  br label %139

118:                                              ; preds = %2, %2, %2
  %119 = load i32, ptr %4, align 4, !tbaa !32
  %120 = load ptr, ptr %6, align 8, !tbaa !3
  %121 = call ptr @lean_mk_io_error_protocol_error(i32 noundef %119, ptr noundef %120)
  store ptr %121, ptr %3, align 8
  store i32 1, ptr %7, align 4
  br label %139

122:                                              ; preds = %2, %2
  %123 = load i32, ptr %4, align 4, !tbaa !32
  %124 = load ptr, ptr %6, align 8, !tbaa !3
  %125 = call ptr @lean_mk_io_error_time_expired(i32 noundef %123, ptr noundef %124)
  store ptr %125, ptr %3, align 8
  store i32 1, ptr %7, align 4
  br label %139

126:                                              ; preds = %2, %2, %2, %2
  %127 = load i32, ptr %4, align 4, !tbaa !32
  %128 = load ptr, ptr %6, align 8, !tbaa !3
  %129 = call ptr @lean_mk_io_error_resource_busy(i32 noundef %127, ptr noundef %128)
  store ptr %129, ptr %3, align 8
  store i32 1, ptr %7, align 4
  br label %139

130:                                              ; preds = %2, %2, %2, %2, %2, %2, %2, %2, %2
  %131 = load i32, ptr %4, align 4, !tbaa !32
  %132 = load ptr, ptr %6, align 8, !tbaa !3
  %133 = call ptr @lean_mk_io_error_unsupported_operation(i32 noundef %131, ptr noundef %132)
  store ptr %133, ptr %3, align 8
  store i32 1, ptr %7, align 4
  br label %139

134:                                              ; preds = %2
  br label %135

135:                                              ; preds = %2, %134
  %136 = load i32, ptr %4, align 4, !tbaa !32
  %137 = load ptr, ptr %6, align 8, !tbaa !3
  %138 = call ptr @lean_mk_io_error_other_error(i32 noundef %136, ptr noundef %137)
  store ptr %138, ptr %3, align 8
  store i32 1, ptr %7, align 4
  br label %139

139:                                              ; preds = %135, %130, %126, %122, %118, %114, %110, %106, %102, %96, %92, %83, %79, %70, %66, %57, %53, %44, %40, %31, %25, %21, %12
  call void @llvm.lifetime.end.p0(i64 8, ptr %6) #20
  %140 = load ptr, ptr %3, align 8
  ret ptr %140
}

; Function Attrs: inlinehint mustprogress uwtable
define linkonce_odr hidden noundef ptr @_ZN4lean9mk_stringEPKc(ptr noundef %0) #2 comdat {
  %2 = alloca ptr, align 8
  store ptr %0, ptr %2, align 8, !tbaa !9
  %3 = load ptr, ptr %2, align 8, !tbaa !9
  %4 = call ptr @lean_mk_string(ptr noundef %3)
  ret ptr %4
}

; Function Attrs: mustprogress uwtable
define ptr @lean_get_windows_local_timezone_id_at(i64 noundef %0, ptr noundef %1) #0 {
  %3 = alloca i64, align 8
  %4 = alloca ptr, align 8
  store i64 %0, ptr %3, align 8, !tbaa !19
  store ptr %1, ptr %4, align 8, !tbaa !3
  %5 = call noundef ptr @_ZN4lean9mk_stringEPKc(ptr noundef @.str.6)
  %6 = call ptr @lean_decode_io_error(i32 noundef 22, ptr noundef %5)
  %7 = call noundef ptr @_ZL23lean_io_result_mk_errorP11lean_object(ptr noundef %6)
  ret ptr %7
}