; Function Attrs: mustprogress uwtable
define noalias nonnull ptr @lean_get_windows_local_timezone_id_at(i64 noundef %0, ptr noundef readnone captures(none) %1) local_unnamed_addr #0 {
  %3 = tail call noundef ptr @lean_mk_string(ptr noundef nonnull @.str.6)
  %4 = tail call ptr @strerror(i32 noundef 22) #27
  %5 = tail call noundef ptr @lean_mk_string(ptr noundef %4)
  %6 = icmp eq ptr %3, null
  br i1 %6, label %7, label %9

7:                                                ; preds = %2
  %8 = tail call ptr @lean_mk_io_error_invalid_argument(i32 noundef 22, ptr noundef %5)
  br label %lean_decode_io_error.exit

9:                                                ; preds = %2
  %.val.i.i76.i = load i32, ptr %3, align 4, !tbaa !7
  %10 = icmp sgt i32 %.val.i.i76.i, 0
  br i1 %10, label %11, label %13, !prof !10

11:                                               ; preds = %9
  %12 = add nuw nsw i32 %.val.i.i76.i, 1
  store i32 %12, ptr %3, align 4, !tbaa !7
  br label %_ZN4lean7inc_refEP11lean_object.exit78.i

13:                                               ; preds = %9
  %.not.i.i77.i = icmp eq i32 %.val.i.i76.i, 0
  br i1 %.not.i.i77.i, label %_ZN4lean7inc_refEP11lean_object.exit78.i, label %14

14:                                               ; preds = %13
  tail call void @lean_inc_ref_cold(ptr noundef nonnull %3)
  br label %_ZN4lean7inc_refEP11lean_object.exit78.i

_ZN4lean7inc_refEP11lean_object.exit78.i:         ; preds = %14, %13, %11
  %15 = tail call ptr @lean_mk_io_error_invalid_argument_file(ptr noundef nonnull %3, i32 noundef 22, ptr noundef %5)
  br label %lean_decode_io_error.exit

lean_decode_io_error.exit:                        ; preds = %7, %_ZN4lean7inc_refEP11lean_object.exit78.i
  %.0.i = phi ptr [ %8, %7 ], [ %15, %_ZN4lean7inc_refEP11lean_object.exit78.i ]
  tail call void @lean_inc_heartbeat()
  %16 = tail call noalias ptr @mi_malloc_small(i64 noundef 24) #27
  %17 = icmp eq ptr %16, null
  br i1 %17, label %18, label %_ZL23lean_io_result_mk_errorP11lean_object.exit

18:                                               ; preds = %lean_decode_io_error.exit
  tail call void @lean_internal_panic_out_of_memory() #28
  unreachable

_ZL23lean_io_result_mk_errorP11lean_object.exit:  ; preds = %lean_decode_io_error.exit
  %19 = getelementptr inbounds nuw i8, ptr %16, i64 4
  store i32 1, ptr %16, align 4, !tbaa !7
  store i32 16908312, ptr %19, align 4
  %20 = getelementptr inbounds nuw i8, ptr %16, i64 8
  store ptr %.0.i, ptr %20, align 8, !tbaa !3
  %21 = getelementptr inbounds nuw i8, ptr %16, i64 16
  store ptr inttoptr (i64 1 to ptr), ptr %21, align 8, !tbaa !3
  ret ptr %16
}